target datalayout = "e-m:e-p270:32:32-p271:32:32-p272:64:64-i64:64-i128:128-f80:128-n8:16:32:64-S128"
target triple = "x86_64-pc-linux-gnu"

%struct.v3_ext_method = type { i32, i32, ptr, ptr, ptr, ptr, ptr, ptr, ptr, ptr, ptr, ptr, ptr, ptr }

; Function Attrs: nounwind uwtable
define ptr @X509V3_EXT_d2i(ptr noundef %0) #0 {
  %2 = alloca ptr, align 8
  %3 = alloca ptr, align 8
  %4 = alloca ptr, align 8
  %5 = alloca ptr, align 8
  %6 = alloca ptr, align 8
  %7 = alloca i32, align 4
  %8 = alloca i32, align 4
  store ptr %0, ptr %3, align 8, !tbaa !17
  call void @llvm.lifetime.start.p0(i64 8, ptr %4) #5
  call void @llvm.lifetime.start.p0(i64 8, ptr %5) #5
  call void @llvm.lifetime.start.p0(i64 8, ptr %6) #5
  call void @llvm.lifetime.start.p0(i64 4, ptr %7) #5
  %9 = load ptr, ptr %3, align 8, !tbaa !17
  %10 = call ptr @X509V3_EXT_get(ptr noundef %9)
  store ptr %10, ptr %4, align 8, !tbaa !3
  %11 = icmp eq ptr %10, null
  br i1 %11, label %12, label %13

12:                                               ; preds = %1
  store ptr null, ptr %2, align 8
  store i32 1, ptr %8, align 4
  br label %39

13:                                               ; preds = %1
  %14 = load ptr, ptr %3, align 8, !tbaa !17
  %15 = call ptr @X509_EXTENSION_get_data(ptr noundef %14)
  store ptr %15, ptr %6, align 8, !tbaa !23
  %16 = load ptr, ptr %6, align 8, !tbaa !23
  %17 = call ptr @ASN1_STRING_get0_data(ptr noundef %16)
  store ptr %17, ptr %5, align 8, !tbaa !25
  %18 = load ptr, ptr %6, align 8, !tbaa !23
  %19 = call i32 @ASN1_STRING_length(ptr noundef %18)
  store i32 %19, ptr %7, align 4, !tbaa !16
  %20 = load ptr, ptr %4, align 8, !tbaa !3
  %21 = getelementptr inbounds nuw %struct.v3_ext_method, ptr %20, i32 0, i32 2
  %22 = load ptr, ptr %21, align 8, !tbaa !27
  %23 = icmp ne ptr %22, null
  br i1 %23, label %24, label %32

24:                                               ; preds = %13
  %25 = load i32, ptr %7, align 4, !tbaa !16
  %26 = sext i32 %25 to i64
  %27 = load ptr, ptr %4, align 8, !tbaa !3
  %28 = getelementptr inbounds nuw %struct.v3_ext_method, ptr %27, i32 0, i32 2
  %29 = load ptr, ptr %28, align 8, !tbaa !27
  %30 = call ptr %29()
  %31 = call ptr @ASN1_item_d2i(ptr noundef null, ptr noundef %5, i64 noundef %26, ptr noundef %30)
  store ptr %31, ptr %2, align 8
  store i32 1, ptr %8, align 4
  br label %39

32:                                               ; preds = %13
  %33 = load ptr, ptr %4, align 8, !tbaa !3
  %34 = getelementptr inbounds nuw %struct.v3_ext_method, ptr %33, i32 0, i32 5
  %35 = load ptr, ptr %34, align 8, !tbaa !28
  %36 = load i32, ptr %7, align 4, !tbaa !16
  %37 = sext i32 %36 to i64
  %38 = call ptr %35(ptr noundef null, ptr noundef %5, i64 noundef %37)
  store ptr %38, ptr %2, align 8
  store i32 1, ptr %8, align 4
  br label %39

39:                                               ; preds = %32, %24, %12
  call void @llvm.lifetime.end.p0(i64 4, ptr %7) #5
  call void @llvm.lifetime.end.p0(i64 8, ptr %6) #5
  call void @llvm.lifetime.end.p0(i64 8, ptr %5) #5
  call void @llvm.lifetime.end.p0(i64 8, ptr %4) #5
  %40 = load ptr, ptr %2, align 8
  ret ptr %40
}

; Function Attrs: inlinehint nounwind uwtable
define internal ptr @ossl_check_const_X509_EXTENSION_sk_type(ptr noundef %0) #2 {
  %2 = alloca ptr, align 8
  store ptr %0, ptr %2, align 8, !tbaa !29
  %3 = load ptr, ptr %2, align 8, !tbaa !29
  ret ptr %3
}

; Function Attrs: nounwind uwtable
define ptr @X509V3_get_d2i(ptr noundef %0, i32 noundef %1, ptr noundef %2, ptr noundef %3) #0 {
  %5 = alloca ptr, align 8
  %6 = alloca ptr, align 8
  %7 = alloca i32, align 4
  %8 = alloca ptr, align 8
  %9 = alloca ptr, align 8
  %10 = alloca i32, align 4
  %11 = alloca i32, align 4
  %12 = alloca ptr, align 8
  %13 = alloca ptr, align 8
  %14 = alloca i32, align 4
  store ptr %0, ptr %6, align 8, !tbaa !29
  store i32 %1, ptr %7, align 4, !tbaa !16
  store ptr %2, ptr %8, align 8, !tbaa !31
  store ptr %3, ptr %9, align 8, !tbaa !31
  call void @llvm.lifetime.start.p0(i64 4, ptr %10) #5
  call void @llvm.lifetime.start.p0(i64 4, ptr %11) #5
  call void @llvm.lifetime.start.p0(i64 8, ptr %12) #5
  call void @llvm.lifetime.start.p0(i64 8, ptr %13) #5
  store ptr null, ptr %13, align 8, !tbaa !17
  %15 = load ptr, ptr %6, align 8, !tbaa !29
  %16 = icmp ne ptr %15, null
  br i1 %16, label %28, label %17

17:                                               ; preds = %4
  %18 = load ptr, ptr %9, align 8, !tbaa !31
  %19 = icmp ne ptr %18, null
  br i1 %19, label %20, label %22

20:                                               ; preds = %17
  %21 = load ptr, ptr %9, align 8, !tbaa !31
  store i32 -1, ptr %21, align 4, !tbaa !16
  br label %22

22:                                               ; preds = %20, %17
  %23 = load ptr, ptr %8, align 8, !tbaa !31
  %24 = icmp ne ptr %23, null
  br i1 %24, label %25, label %27

25:                                               ; preds = %22
  %26 = load ptr, ptr %8, align 8, !tbaa !31
  store i32 -1, ptr %26, align 4, !tbaa !16
  br label %27

27:                                               ; preds = %25, %22
  store ptr null, ptr %5, align 8
  store i32 1, ptr %14, align 4
  br label %105

28:                                               ; preds = %4
  %29 = load ptr, ptr %9, align 8, !tbaa !31
  %30 = icmp ne ptr %29, null
  br i1 %30, label %31, label %35

31:                                               ; preds = %28
  %32 = load ptr, ptr %9, align 8, !tbaa !31
  %33 = load i32, ptr %32, align 4, !tbaa !16
  %34 = add nsw i32 %33, 1
  store i32 %34, ptr %10, align 4, !tbaa !16
  br label %36

35:                                               ; preds = %28
  store i32 0, ptr %10, align 4, !tbaa !16
  br label %36

36:                                               ; preds = %35, %31
  %37 = load i32, ptr %10, align 4, !tbaa !16
  %38 = icmp slt i32 %37, 0
  br i1 %38, label %39, label %40

39:                                               ; preds = %36
  store i32 0, ptr %10, align 4, !tbaa !16
  br label %40

40:                                               ; preds = %39, %36
  %41 = load i32, ptr %10, align 4, !tbaa !16
  store i32 %41, ptr %11, align 4, !tbaa !16
  br label %42

42:                                               ; preds = %78, %40
  %43 = load i32, ptr %11, align 4, !tbaa !16
  %44 = load ptr, ptr %6, align 8, !tbaa !29
  %45 = call ptr @ossl_check_const_X509_EXTENSION_sk_type(ptr noundef %44)
  %46 = call i32 @OPENSSL_sk_num(ptr noundef %45)
  %47 = icmp slt i32 %43, %46
  br i1 %47, label %48, label %81

48:                                               ; preds = %42
  %49 = load ptr, ptr %6, align 8, !tbaa !29
  %50 = call ptr @ossl_check_const_X509_EXTENSION_sk_type(ptr noundef %49)
  %51 = load i32, ptr %11, align 4, !tbaa !16
  %52 = call ptr @OPENSSL_sk_value(ptr noundef %50, i32 noundef %51)
  store ptr %52, ptr %12, align 8, !tbaa !17
  %53 = load ptr, ptr %12, align 8, !tbaa !17
  %54 = call ptr @X509_EXTENSION_get_object(ptr noundef %53)
  %55 = call i32 @OBJ_obj2nid(ptr noundef %54)
  %56 = load i32, ptr %7, align 4, !tbaa !16
  %57 = icmp eq i32 %55, %56
  br i1 %57, label %58, label %77

58:                                               ; preds = %48
  %59 = load ptr, ptr %9, align 8, !tbaa !31
  %60 = icmp ne ptr %59, null
  br i1 %60, label %61, label %65

61:                                               ; preds = %58
  %62 = load i32, ptr %11, align 4, !tbaa !16
  %63 = load ptr, ptr %9, align 8, !tbaa !31
  store i32 %62, ptr %63, align 4, !tbaa !16
  %64 = load ptr, ptr %12, align 8, !tbaa !17
  store ptr %64, ptr %13, align 8, !tbaa !17
  br label %81

65:                                               ; preds = %58
  %66 = load ptr, ptr %13, align 8, !tbaa !17
  %67 = icmp ne ptr %66, null
  br i1 %67, label %68, label %74

68:                                               ; preds = %65
  %69 = load ptr, ptr %8, align 8, !tbaa !31
  %70 = icmp ne ptr %69, null
  br i1 %70, label %71, label %73

71:                                               ; preds = %68
  %72 = load ptr, ptr %8, align 8, !tbaa !31
  store i32 -2, ptr %72, align 4, !tbaa !16
  br label %73

73:                                               ; preds = %71, %68
  store ptr null, ptr %5, align 8
  store i32 1, ptr %14, align 4
  br label %105

74:                                               ; preds = %65
  br label %75

75:                                               ; preds = %74
  %76 = load ptr, ptr %12, align 8, !tbaa !17
  store ptr %76, ptr %13, align 8, !tbaa !17
  br label %77

77:                                               ; preds = %75, %48
  br label %78

78:                                               ; preds = %77
  %79 = load i32, ptr %11, align 4, !tbaa !16
  %80 = add nsw i32 %79, 1
  store i32 %80, ptr %11, align 4, !tbaa !16
  br label %42, !llvm.loop !33

81:                                               ; preds = %61, %42
  %82 = load ptr, ptr %13, align 8, !tbaa !17
  %83 = icmp ne ptr %82, null
  br i1 %83, label %84, label %94

84:                                               ; preds = %81
  %85 = load ptr, ptr %8, align 8, !tbaa !31
  %86 = icmp ne ptr %85, null
  br i1 %86, label %87, label %91

87:                                               ; preds = %84
  %88 = load ptr, ptr %13, align 8, !tbaa !17
  %89 = call i32 @X509_EXTENSION_get_critical(ptr noundef %88)
  %90 = load ptr, ptr %8, align 8, !tbaa !31
  store i32 %89, ptr %90, align 4, !tbaa !16
  br label %91

91:                                               ; preds = %87, %84
  %92 = load ptr, ptr %13, align 8, !tbaa !17
  %93 = call ptr @X509V3_EXT_d2i(ptr noundef %92)
  store ptr %93, ptr %5, align 8
  store i32 1, ptr %14, align 4
  br label %105

94:                                               ; preds = %81
  %95 = load ptr, ptr %9, align 8, !tbaa !31
  %96 = icmp ne ptr %95, null
  br i1 %96, label %97, label %99

97:                                               ; preds = %94
  %98 = load ptr, ptr %9, align 8, !tbaa !31
  store i32 -1, ptr %98, align 4, !tbaa !16
  br label %99

99:                                               ; preds = %97, %94
  %100 = load ptr, ptr %8, align 8, !tbaa !31
  %101 = icmp ne ptr %100, null
  br i1 %101, label %102, label %104

102:                                              ; preds = %99
  %103 = load ptr, ptr %8, align 8, !tbaa !31
  store i32 -1, ptr %103, align 4, !tbaa !16
  br label %104

104:                                              ; preds = %102, %99
  store ptr null, ptr %5, align 8
  store i32 1, ptr %14, align 4
  br label %105

105:                                              ; preds = %104, %91, %73, %27
  call void @llvm.lifetime.end.p0(i64 8, ptr %13) #5
  call void @llvm.lifetime.end.p0(i64 8, ptr %12) #5
  call void @llvm.lifetime.end.p0(i64 4, ptr %11) #5
  call void @llvm.lifetime.end.p0(i64 4, ptr %10) #5
  %106 = load ptr, ptr %5, align 8
  ret ptr %106
}