; Function Attrs: nounwind uwtable
define ptr @X509V3_get_d2i(ptr noundef %0, i32 noundef %1, ptr noundef writeonly captures(address_is_null) %2, ptr noundef captures(address_is_null) %3) local_unnamed_addr #0 {
  %5 = alloca ptr, align 8
  %.not = icmp eq ptr %0, null
  %.not44 = icmp eq ptr %3, null
  br i1 %.not, label %6, label %10

6:                                                ; preds = %4
  br i1 %.not44, label %8, label %7

7:                                                ; preds = %6
  store i32 -1, ptr %3, align 4, !tbaa !16
  br label %8

8:                                                ; preds = %7, %6
  %.not45 = icmp eq ptr %2, null
  br i1 %.not45, label %58, label %9

9:                                                ; preds = %8
  store i32 -1, ptr %2, align 4, !tbaa !16
  br label %58

10:                                               ; preds = %4
  br i1 %.not44, label %14, label %11

11:                                               ; preds = %10
  %12 = load i32, ptr %3, align 4, !tbaa !16
  %13 = add nsw i32 %12, 1
  br label %14

14:                                               ; preds = %10, %11
  %.035 = phi i32 [ %13, %11 ], [ 0, %10 ]
  %spec.store.select = tail call i32 @llvm.smax.i32(i32 %.035, i32 0)
  %15 = tail call i32 @OPENSSL_sk_num(ptr noundef nonnull %0) #7
  %16 = icmp slt i32 %spec.store.select, %15
  br i1 %16, label %.lr.ph, label %._crit_edge.thread

.lr.ph:                                           ; preds = %14
  br i1 %.not44, label %.lr.ph.split.us, label %.lr.ph.split

.lr.ph.split.us:                                  ; preds = %.lr.ph, %22
  %.062.us = phi ptr [ %.2.us, %22 ], [ null, %.lr.ph ]
  %.03461.us = phi i32 [ %23, %22 ], [ %spec.store.select, %.lr.ph ]
  %17 = tail call ptr @OPENSSL_sk_value(ptr noundef nonnull %0, i32 noundef %.03461.us) #7
  %18 = tail call ptr @X509_EXTENSION_get_object(ptr noundef %17) #7
  %19 = tail call i32 @OBJ_obj2nid(ptr noundef %18) #7
  %20 = icmp eq i32 %19, %1
  br i1 %20, label %21, label %22

21:                                               ; preds = %.lr.ph.split.us
  %.not47.us = icmp eq ptr %.062.us, null
  br i1 %.not47.us, label %22, label %.split.us

22:                                               ; preds = %21, %.lr.ph.split.us
  %.2.us = phi ptr [ %.062.us, %.lr.ph.split.us ], [ %17, %21 ]
  %23 = add nuw nsw i32 %.03461.us, 1
  %24 = tail call i32 @OPENSSL_sk_num(ptr noundef nonnull %0) #7
  %25 = icmp slt i32 %23, %24
  br i1 %25, label %.lr.ph.split.us, label %._crit_edge, !llvm.loop !23

.lr.ph.split:                                     ; preds = %.lr.ph, %31
  %.03461 = phi i32 [ %32, %31 ], [ %spec.store.select, %.lr.ph ]
  %26 = tail call ptr @OPENSSL_sk_value(ptr noundef nonnull %0, i32 noundef %.03461) #7
  %27 = tail call ptr @X509_EXTENSION_get_object(ptr noundef %26) #7
  %28 = tail call i32 @OBJ_obj2nid(ptr noundef %27) #7
  %29 = icmp eq i32 %28, %1
  br i1 %29, label %.thread, label %31

.split.us:                                        ; preds = %21
  %.not48 = icmp eq ptr %2, null
  br i1 %.not48, label %58, label %30

30:                                               ; preds = %.split.us
  store i32 -2, ptr %2, align 4, !tbaa !16
  br label %58

31:                                               ; preds = %.lr.ph.split
  %32 = add nuw nsw i32 %.03461, 1
  %33 = tail call i32 @OPENSSL_sk_num(ptr noundef nonnull %0) #7
  %34 = icmp slt i32 %32, %33
  br i1 %34, label %.lr.ph.split, label %._crit_edge.thread, !llvm.loop !23

._crit_edge:                                      ; preds = %22
  %.not49 = icmp eq ptr %.2.us, null
  br i1 %.not49, label %._crit_edge.thread, label %35

.thread:                                          ; preds = %.lr.ph.split
  store i32 %.03461, ptr %3, align 4, !tbaa !16
  %.not4953 = icmp eq ptr %26, null
  br i1 %.not4953, label %.thread55, label %35

35:                                               ; preds = %.thread, %._crit_edge
  %.154 = phi ptr [ %26, %.thread ], [ %.2.us, %._crit_edge ]
  %.not51 = icmp eq ptr %2, null
  br i1 %.not51, label %38, label %36

36:                                               ; preds = %35
  %37 = tail call i32 @X509_EXTENSION_get_critical(ptr noundef nonnull %.154) #7
  store i32 %37, ptr %2, align 4, !tbaa !16
  br label %38

38:                                               ; preds = %36, %35
  call void @llvm.lifetime.start.p0(i64 8, ptr nonnull %5) #7
  %39 = tail call ptr @X509V3_EXT_get(ptr noundef nonnull %.154)
  %40 = icmp eq ptr %39, null
  br i1 %40, label %X509V3_EXT_d2i.exit, label %41

41:                                               ; preds = %38
  %42 = tail call ptr @X509_EXTENSION_get_data(ptr noundef nonnull %.154) #7
  %43 = tail call ptr @ASN1_STRING_get0_data(ptr noundef %42) #7
  store ptr %43, ptr %5, align 8, !tbaa !19
  %44 = tail call i32 @ASN1_STRING_length(ptr noundef %42) #7
  %45 = getelementptr inbounds nuw i8, ptr %39, i64 8
  %46 = load ptr, ptr %45, align 8, !tbaa !21
  %.not.i = icmp eq ptr %46, null
  br i1 %.not.i, label %51, label %47

47:                                               ; preds = %41
  %48 = sext i32 %44 to i64
  %49 = tail call ptr %46() #7
  %50 = call ptr @ASN1_item_d2i(ptr noundef null, ptr noundef nonnull %5, i64 noundef %48, ptr noundef %49) #7
  br label %X509V3_EXT_d2i.exit

51:                                               ; preds = %41
  %52 = getelementptr inbounds nuw i8, ptr %39, i64 32
  %53 = load ptr, ptr %52, align 8, !tbaa !22
  %54 = sext i32 %44 to i64
  %55 = call ptr %53(ptr noundef null, ptr noundef nonnull %5, i64 noundef %54) #7
  br label %X509V3_EXT_d2i.exit

X509V3_EXT_d2i.exit:                              ; preds = %38, %47, %51
  %.0.i = phi ptr [ %50, %47 ], [ %55, %51 ], [ null, %38 ]
  call void @llvm.lifetime.end.p0(i64 8, ptr nonnull %5) #7
  br label %58

._crit_edge.thread:                               ; preds = %31, %14, %._crit_edge
  br i1 %.not44, label %56, label %.thread55

.thread55:                                        ; preds = %.thread, %._crit_edge.thread
  store i32 -1, ptr %3, align 4, !tbaa !16
  br label %56

56:                                               ; preds = %.thread55, %._crit_edge.thread
  %.not50 = icmp eq ptr %2, null
  br i1 %.not50, label %58, label %57

57:                                               ; preds = %56
  store i32 -1, ptr %2, align 4, !tbaa !16
  br label %58

58:                                               ; preds = %56, %57, %.split.us, %30, %8, %9, %X509V3_EXT_d2i.exit
  %.033 = phi ptr [ %.0.i, %X509V3_EXT_d2i.exit ], [ null, %9 ], [ null, %8 ], [ null, %30 ], [ null, %.split.us ], [ null, %57 ], [ null, %56 ]
  ret ptr %.033
}